; Function Attrs: mustprogress uwtable
define noundef zeroext i1 @_ZNK6icu_756number4impl31CurrencyPluralInfoAffixProvider18containsSymbolTypeENS1_16AffixPatternTypeER10UErrorCode(ptr noundef nonnull align 8 dereferenceable(2185) %this, i32 noundef %type, ptr noundef nonnull align 4 dereferenceable(4) %status) unnamed_addr #1 align 2 {
entry:
  %arrayidx = getelementptr inbounds i8, ptr %this, i64 1368
  %vtable = load ptr, ptr %arrayidx, align 8
  %vfn = getelementptr inbounds i8, ptr %vtable, i64 72
  %0 = load ptr, ptr %vfn, align 8
  %call = tail call noundef zeroext i1 %0(ptr noundef nonnull align 8 dereferenceable(267) %arrayidx, i32 noundef %type, ptr noundef nonnull align 4 dereferenceable(4) %status)
  ret i1 %call
}